target datalayout = "e-m:e-p270:32:32-p271:32:32-p272:64:64-i64:64-i128:128-f80:128-n8:16:32:64-S128"
target triple = "x86_64-pc-linux-gnu"

%class.LogTagSet = type { ptr, i64, [5 x i32], [4 x i8], %class.LogOutputList, %class.LogDecorators, ptr }
%class.LogOutputList = type <{ [6 x ptr], i32, [4 x i8] }>
%class.LogDecorators = type { i32 }

@UseLargePages = external global i8, align 1
@MaxHeapSize = external global i64, align 8
@.str = private unnamed_addr constant [86 x i8] c"Large pages size (%luK) is too large to afford page-sized regions, disabling uncommit\00", align 1
@ShenandoahUncommit = external global i8, align 1
@UseNUMA = external global i8, align 1
@ConcGCThreads = external global i32, align 4
@.str.4 = private unnamed_addr constant [64 x i8] c"Shenandoah expects ConcGCThreads > 0, check -XX:ConcGCThreads=#\00", align 1
@ParallelGCThreads = external global i32, align 4
@.str.5 = private unnamed_addr constant [72 x i8] c"Shenandoah expects ParallelGCThreads > 0, check -XX:ParallelGCThreads=#\00", align 1
@.str.6 = private unnamed_addr constant [40 x i8] c"Shenandoah thread count ergonomic error\00", align 1
@.str.7 = private unnamed_addr constant [102 x i8] c"Shenandoah expects ConcGCThreads <= ParallelGCThreads, check -XX:ParallelGCThreads, -XX:ConcGCThreads\00", align 1
@UseDynamicNumberOfGCThreads = external global i8, align 1
@.str.8 = private unnamed_addr constant [67 x i8] c"Shenandoah does not support UseDynamicNumberOfGCThreads, disabling\00", align 1
@ShenandoahRegionSampling = external global i8, align 1
@PerfDataMemorySize = external global i32, align 4
@UseCountedLoopSafepoints = external global i8, align 1
@LoopStripMiningIter = external global i64, align 8
@LogEventsBufferEntries = external global i32, align 4
@InitialHeapSize = external global i64, align 8
@.str.9 = private unnamed_addr constant [58 x i8] c"Min heap equals to max heap, disabling ShenandoahUncommit\00", align 1
@ClassUnloading = external global i8, align 1
@ClassUnloadingWithConcurrentMark = external global i8, align 1
@TLABAllocationWeight = external global i64, align 8
@_ZN16LogTagSetMappingILN6LogTag4typeE49ELS1_0ELS1_0ELS1_0ELS1_0ELS1_0EE7_tagsetE = linkonce_odr hidden global %class.LogTagSet zeroinitializer, comdat, align 8
@_ZN2os31_initial_active_processor_countE = external global i32, align 4

; Function Attrs: mustprogress nounwind uwtable
define linkonce_odr hidden noundef zeroext i1 @_ZNK13LogOutputList8is_levelEN8LogLevel4typeE(ptr noundef nonnull align 8 dereferenceable(52) %0, i32 noundef %1) #1 comdat align 2 {
  %3 = alloca ptr, align 8
  %4 = alloca i32, align 4
  store ptr %0, ptr %3, align 8
  store i32 %1, ptr %4, align 4
  %5 = load ptr, ptr %3, align 8
  %6 = getelementptr inbounds %class.LogOutputList, ptr %5, i32 0, i32 0
  %7 = load i32, ptr %4, align 4
  %8 = zext i32 %7 to i64
  %9 = getelementptr inbounds [6 x ptr], ptr %6, i64 0, i64 %8
  %10 = load volatile ptr, ptr %9, align 8
  %11 = icmp ne ptr %10, null
  ret i1 %11
}

; Function Attrs: mustprogress nounwind uwtable
define linkonce_odr hidden noundef zeroext i1 @_ZNK9LogTagSet8is_levelEN8LogLevel4typeE(ptr noundef nonnull align 8 dereferenceable(112) %0, i32 noundef %1) #1 comdat align 2 {
  %3 = alloca ptr, align 8
  %4 = alloca i32, align 4
  store ptr %0, ptr %3, align 8
  store i32 %1, ptr %4, align 4
  %5 = load ptr, ptr %3, align 8
  %6 = getelementptr inbounds %class.LogTagSet, ptr %5, i32 0, i32 4
  %7 = load i32, ptr %4, align 4
  %8 = call noundef zeroext i1 @_ZNK13LogOutputList8is_levelEN8LogLevel4typeE(ptr noundef nonnull align 8 dereferenceable(52) %6, i32 noundef %7)
  ret i1 %8
}

; Function Attrs: mustprogress nounwind uwtable
define linkonce_odr hidden noundef nonnull align 8 dereferenceable(112) ptr @_ZN16LogTagSetMappingILN6LogTag4typeE49ELS1_0ELS1_0ELS1_0ELS1_0ELS1_0EE6tagsetEv() #1 comdat align 2 {
  ret ptr @_ZN16LogTagSetMappingILN6LogTag4typeE49ELS1_0ELS1_0ELS1_0ELS1_0ELS1_0EE7_tagsetE
}

; Function Attrs: mustprogress nounwind uwtable
define linkonce_odr hidden noundef i64 @_Z10align_downImmTnNSt9enable_ifIXcvbsr3std11is_integralIT_EE5valueEiE4typeELi0EES1_S1_T0_(i64 noundef %0, i64 noundef %1) #1 comdat {
  %3 = alloca i64, align 8
  %4 = alloca i64, align 8
  %5 = alloca i64, align 8
  store i64 %0, ptr %3, align 8
  store i64 %1, ptr %4, align 8
  %6 = load i64, ptr %3, align 8
  %7 = load i64, ptr %4, align 8
  %8 = call noundef i64 @_ZL14alignment_maskImTnNSt9enable_ifIXcvbsr3std11is_integralIT_EE5valueEiE4typeELi0EES1_S1_(i64 noundef %7)
  %9 = xor i64 %8, -1
  %10 = and i64 %6, %9
  store i64 %10, ptr %5, align 8
  %11 = load i64, ptr %5, align 8
  ret i64 %11
}

; Function Attrs: mustprogress nounwind uwtable
define linkonce_odr hidden noundef i64 @_Z12checked_castImmET_T0_(i64 noundef %0) #1 comdat {
  %2 = alloca i64, align 8
  %3 = alloca i64, align 8
  store i64 %0, ptr %2, align 8
  %4 = load i64, ptr %2, align 8
  store i64 %4, ptr %3, align 8
  %5 = load i64, ptr %3, align 8
  ret i64 %5
}

; Function Attrs: mustprogress nounwind uwtable
define internal noundef i64 @_ZL14alignment_maskImTnNSt9enable_ifIXcvbsr3std11is_integralIT_EE5valueEiE4typeELi0EES1_S1_(i64 noundef %0) #1 {
  %2 = alloca i64, align 8
  store i64 %0, ptr %2, align 8
  %3 = load i64, ptr %2, align 8
  %4 = sub i64 %3, 1
  ret i64 %4
}

; Function Attrs: mustprogress nounwind uwtable
define linkonce_odr hidden noundef zeroext i1 @_ZN7LogImplILN6LogTag4typeE49ELS1_0ELS1_0ELS1_0ELS1_0ELS1_0EE8is_levelEN8LogLevel4typeE(i32 noundef %0) #1 comdat align 2 {
  %2 = alloca i32, align 4
  store i32 %0, ptr %2, align 4
  %3 = call noundef nonnull align 8 dereferenceable(112) ptr @_ZN16LogTagSetMappingILN6LogTag4typeE49ELS1_0ELS1_0ELS1_0ELS1_0ELS1_0EE6tagsetEv()
  %4 = load i32, ptr %2, align 4
  %5 = call noundef zeroext i1 @_ZNK9LogTagSet8is_levelEN8LogLevel4typeE(ptr noundef nonnull align 8 dereferenceable(112) %3, i32 noundef %4)
  ret i1 %5
}

; Function Attrs: mustprogress nounwind uwtable
define linkonce_odr hidden noundef i32 @_Z4MAX2IiET_S0_S0_(i32 noundef %0, i32 noundef %1) #1 comdat {
  %3 = alloca i32, align 4
  %4 = alloca i32, align 4
  store i32 %0, ptr %3, align 4
  store i32 %1, ptr %4, align 4
  %5 = load i32, ptr %3, align 4
  %6 = load i32, ptr %4, align 4
  %7 = icmp sgt i32 %5, %6
  br i1 %7, label %8, label %10

8:                                                ; preds = %2
  %9 = load i32, ptr %3, align 4
  br label %12

10:                                               ; preds = %2
  %11 = load i32, ptr %4, align 4
  br label %12

12:                                               ; preds = %10, %8
  %13 = phi i32 [ %9, %8 ], [ %11, %10 ]
  ret i32 %13
}

; Function Attrs: mustprogress nounwind uwtable
define linkonce_odr hidden noundef i32 @_ZN2os30initial_active_processor_countEv() #1 comdat align 2 {
  %1 = load i32, ptr @_ZN2os31_initial_active_processor_countE, align 4
  ret i32 %1
}

; Function Attrs: mustprogress nounwind uwtable
define linkonce_odr hidden noundef i64 @_Z8align_upImmTnNSt9enable_ifIXcvbsr3std11is_integralIT_EE5valueEiE4typeELi0EES1_S1_T0_(i64 noundef %0, i64 noundef %1) #1 comdat {
  %3 = alloca i64, align 8
  %4 = alloca i64, align 8
  %5 = alloca i64, align 8
  store i64 %0, ptr %3, align 8
  store i64 %1, ptr %4, align 8
  %6 = load i64, ptr %3, align 8
  %7 = load i64, ptr %4, align 8
  %8 = call noundef i64 @_ZL14alignment_maskImTnNSt9enable_ifIXcvbsr3std11is_integralIT_EE5valueEiE4typeELi0EES1_S1_(i64 noundef %7)
  %9 = add i64 %6, %8
  %10 = call noundef i64 @_Z12checked_castImmET_T0_(i64 noundef %9)
  store i64 %10, ptr %5, align 8
  %11 = load i64, ptr %5, align 8
  %12 = load i64, ptr %4, align 8
  %13 = call noundef i64 @_Z10align_downImmTnNSt9enable_ifIXcvbsr3std11is_integralIT_EE5valueEiE4typeELi0EES1_S1_T0_(i64 noundef %11, i64 noundef %12)
  ret i64 %13
}

; Function Attrs: mustprogress nounwind uwtable
define hidden void @_ZN19ShenandoahArguments10initializeEv(ptr noundef nonnull align 8 dereferenceable(8) %0) unnamed_addr #1 align 2 {
  %2 = alloca ptr, align 8
  %3 = alloca i64, align 8
  %4 = alloca i8, align 1
  %5 = alloca i8, align 1
  store ptr %0, ptr %2, align 8
  %6 = load i8, ptr @UseLargePages, align 1
  %7 = trunc i8 %6 to i1
  br i1 %7, label %8, label %20

8:                                                ; preds = %1
  %9 = call noundef i64 @_ZN2os15large_page_sizeEv()
  store i64 %9, ptr %3, align 8
  %10 = load i64, ptr @MaxHeapSize, align 8
  %11 = load i64, ptr %3, align 8
  %12 = call noundef i64 @_Z8align_upImmTnNSt9enable_ifIXcvbsr3std11is_integralIT_EE5valueEiE4typeELi0EES1_S1_T0_(i64 noundef %10, i64 noundef %11)
  %13 = load i64, ptr %3, align 8
  %14 = udiv i64 %12, %13
  %15 = icmp ult i64 %14, 10
  br i1 %15, label %16, label %19

16:                                               ; preds = %8
  %17 = call noundef i64 @_ZN2os15large_page_sizeEv()
  %18 = udiv i64 %17, 1024
  call void (ptr, ...) @_Z7warningPKcz(ptr noundef @.str, i64 noundef %18)
  store i8 0, ptr @ShenandoahUncommit, align 1
  br label %19

19:                                               ; preds = %16, %8
  br label %20

20:                                               ; preds = %19, %1
  %21 = call noundef zeroext i1 @_ZN7JVMFlag10is_defaultE12JVMFlagsEnum(i32 noundef 459)
  br i1 %21, label %22, label %23

22:                                               ; preds = %20
  store i8 1, ptr @UseNUMA, align 1
  br label %23

23:                                               ; preds = %22, %20
  %24 = call noundef zeroext i1 @_ZN7JVMFlag10is_defaultE12JVMFlagsEnum(i32 noundef 1096)
  %25 = zext i1 %24 to i8
  store i8 %25, ptr %4, align 1
  %26 = load i8, ptr %4, align 1
  %27 = trunc i8 %26 to i1
  br i1 %27, label %28, label %32

28:                                               ; preds = %23
  %29 = call noundef i32 @_ZN2os30initial_active_processor_countEv()
  %30 = sdiv i32 %29, 4
  %31 = call noundef i32 @_Z4MAX2IiET_S0_S0_(i32 noundef 1, i32 noundef %30)
  store i32 %31, ptr @ConcGCThreads, align 4
  br label %32

32:                                               ; preds = %28, %23
  %33 = load i32, ptr @ConcGCThreads, align 4
  %34 = icmp eq i32 %33, 0
  br i1 %34, label %35, label %36

35:                                               ; preds = %32
  call void @_Z29vm_exit_during_initializationPKcS0_(ptr noundef @.str.4, ptr noundef null)
  br label %36

36:                                               ; preds = %35, %32
  %37 = call noundef zeroext i1 @_ZN7JVMFlag10is_defaultE12JVMFlagsEnum(i32 noundef 1092)
  %38 = zext i1 %37 to i8
  store i8 %38, ptr %5, align 1
  %39 = load i8, ptr %5, align 1
  %40 = trunc i8 %39 to i1
  br i1 %40, label %41, label %45

41:                                               ; preds = %36
  %42 = call noundef i32 @_ZN2os30initial_active_processor_countEv()
  %43 = sdiv i32 %42, 2
  %44 = call noundef i32 @_Z4MAX2IiET_S0_S0_(i32 noundef 1, i32 noundef %43)
  store i32 %44, ptr @ParallelGCThreads, align 4
  br label %45

45:                                               ; preds = %41, %36
  %46 = load i32, ptr @ParallelGCThreads, align 4
  %47 = icmp eq i32 %46, 0
  br i1 %47, label %48, label %49

48:                                               ; preds = %45
  call void @_Z29vm_exit_during_initializationPKcS0_(ptr noundef @.str.5, ptr noundef null)
  br label %49

49:                                               ; preds = %48, %45
  %50 = load i32, ptr @ParallelGCThreads, align 4
  %51 = load i32, ptr @ConcGCThreads, align 4
  %52 = icmp ult i32 %50, %51
  br i1 %52, label %53, label %80

53:                                               ; preds = %49
  %54 = load i8, ptr %4, align 1
  %55 = trunc i8 %54 to i1
  br i1 %55, label %56, label %61

56:                                               ; preds = %53
  %57 = load i8, ptr %5, align 1
  %58 = trunc i8 %57 to i1
  br i1 %58, label %61, label %59

59:                                               ; preds = %56
  %60 = load i32, ptr @ParallelGCThreads, align 4
  store i32 %60, ptr @ConcGCThreads, align 4
  br label %79

61:                                               ; preds = %56, %53
  %62 = load i8, ptr %4, align 1
  %63 = trunc i8 %62 to i1
  br i1 %63, label %69, label %64

64:                                               ; preds = %61
  %65 = load i8, ptr %5, align 1
  %66 = trunc i8 %65 to i1
  br i1 %66, label %67, label %69

67:                                               ; preds = %64
  %68 = load i32, ptr @ConcGCThreads, align 4
  store i32 %68, ptr @ParallelGCThreads, align 4
  br label %78

69:                                               ; preds = %64, %61
  %70 = load i8, ptr %4, align 1
  %71 = trunc i8 %70 to i1
  br i1 %71, label %72, label %76

72:                                               ; preds = %69
  %73 = load i8, ptr %5, align 1
  %74 = trunc i8 %73 to i1
  br i1 %74, label %75, label %76

75:                                               ; preds = %72
  call void @_Z29vm_exit_during_initializationPKcS0_(ptr noundef @.str.6, ptr noundef null)
  br label %77

76:                                               ; preds = %72, %69
  call void @_Z29vm_exit_during_initializationPKcS0_(ptr noundef @.str.7, ptr noundef null)
  br label %77

77:                                               ; preds = %76, %75
  br label %78

78:                                               ; preds = %77, %67
  br label %79

79:                                               ; preds = %78, %59
  br label %80

80:                                               ; preds = %79, %49
  %81 = load i8, ptr @UseDynamicNumberOfGCThreads, align 1
  %82 = trunc i8 %81 to i1
  br i1 %82, label %83, label %87

83:                                               ; preds = %80
  %84 = call noundef zeroext i1 @_ZN7JVMFlag10is_cmdlineE12JVMFlagsEnum(i32 noundef 1093)
  br i1 %84, label %85, label %86

85:                                               ; preds = %83
  call void (ptr, ...) @_Z7warningPKcz(ptr noundef @.str.8)
  br label %86

86:                                               ; preds = %85, %83
  store i8 0, ptr @UseDynamicNumberOfGCThreads, align 1
  br label %87

87:                                               ; preds = %86, %80
  %88 = load i8, ptr @ShenandoahRegionSampling, align 1
  %89 = trunc i8 %88 to i1
  br i1 %89, label %90, label %93

90:                                               ; preds = %87
  %91 = call noundef zeroext i1 @_ZN7JVMFlag10is_defaultE12JVMFlagsEnum(i32 noundef 859)
  br i1 %91, label %92, label %93

92:                                               ; preds = %90
  store i32 2097152, ptr @PerfDataMemorySize, align 4
  br label %93

93:                                               ; preds = %92, %90, %87
  %94 = call noundef zeroext i1 @_ZN7JVMFlag10is_defaultE12JVMFlagsEnum(i32 noundef 204)
  br i1 %94, label %95, label %99

95:                                               ; preds = %93
  store i8 1, ptr @UseCountedLoopSafepoints, align 1
  %96 = call noundef zeroext i1 @_ZN7JVMFlag10is_defaultE12JVMFlagsEnum(i32 noundef 358)
  br i1 %96, label %97, label %98

97:                                               ; preds = %95
  store i64 1000, ptr @LoopStripMiningIter, align 8
  br label %98

98:                                               ; preds = %97, %95
  br label %99

99:                                               ; preds = %98, %93
  br label %100

100:                                              ; preds = %99
  br label %101

101:                                              ; preds = %100
  %102 = call noundef zeroext i1 @_ZN7JVMFlag10is_defaultE12JVMFlagsEnum(i32 noundef 532)
  br i1 %102, label %103, label %104

103:                                              ; preds = %101
  store i32 250, ptr @LogEventsBufferEntries, align 4
  br label %104

104:                                              ; preds = %103, %101
  %105 = load i64, ptr @InitialHeapSize, align 8
  %106 = load i64, ptr @MaxHeapSize, align 8
  %107 = icmp eq i64 %105, %106
  br i1 %107, label %108, label %116

108:                                              ; preds = %104
  %109 = load i8, ptr @ShenandoahUncommit, align 1
  %110 = trunc i8 %109 to i1
  br i1 %110, label %111, label %116

111:                                              ; preds = %108
  %112 = call noundef zeroext i1 @_ZN7LogImplILN6LogTag4typeE49ELS1_0ELS1_0ELS1_0ELS1_0ELS1_0EE8is_levelEN8LogLevel4typeE(i32 noundef 3)
  br i1 %112, label %114, label %113

113:                                              ; preds = %111
  br label %115

114:                                              ; preds = %111
  call void (ptr, ...) @_ZN7LogImplILN6LogTag4typeE49ELS1_0ELS1_0ELS1_0ELS1_0ELS1_0EE5writeILN8LogLevel4typeE3EEEvPKcz(ptr noundef @.str.9)
  br label %115

115:                                              ; preds = %114, %113
  store i8 0, ptr @ShenandoahUncommit, align 1
  br label %116

116:                                              ; preds = %115, %108, %104
  %117 = load i8, ptr @ClassUnloading, align 1
  %118 = trunc i8 %117 to i1
  br i1 %118, label %120, label %119

119:                                              ; preds = %116
  store i8 0, ptr @ClassUnloadingWithConcurrentMark, align 1
  br label %120

120:                                              ; preds = %119, %116
  %121 = call noundef zeroext i1 @_ZN7JVMFlag10is_defaultE12JVMFlagsEnum(i32 noundef 1219)
  br i1 %121, label %122, label %123

122:                                              ; preds = %120
  store i64 90, ptr @TLABAllocationWeight, align 8
  br label %123

123:                                              ; preds = %122, %120
  ret void
}