; Function Attrs: mustprogress nounwind uwtable
define hidden void @_ZN19ShenandoahArguments10initializeEv(ptr nocapture nonnull readnone align 8 %0) unnamed_addr #0 align 2 {
  %2 = load i8, ptr @UseLargePages, align 1
  %3 = trunc i8 %2 to i1
  br i1 %3, label %4, label %16

4:                                                ; preds = %1
  %5 = tail call noundef i64 @_ZN2os15large_page_sizeEv() #5
  %6 = load i64, ptr @MaxHeapSize, align 8
  %7 = add i64 %5, -1
  %8 = add i64 %7, %6
  %9 = sub i64 0, %5
  %10 = and i64 %8, %9
  %11 = udiv i64 %10, %5
  %12 = icmp ult i64 %11, 10
  br i1 %12, label %13, label %16

13:                                               ; preds = %4
  %14 = tail call noundef i64 @_ZN2os15large_page_sizeEv() #5
  %15 = lshr i64 %14, 10
  tail call void (ptr, ...) @_Z7warningPKcz(ptr noundef nonnull @.str, i64 noundef %15) #5
  store i8 0, ptr @ShenandoahUncommit, align 1
  br label %16

16:                                               ; preds = %4, %13, %1
  %17 = tail call noundef zeroext i1 @_ZN7JVMFlag10is_defaultE12JVMFlagsEnum(i32 noundef 459) #5
  br i1 %17, label %18, label %19

18:                                               ; preds = %16
  store i8 1, ptr @UseNUMA, align 1
  br label %19

19:                                               ; preds = %18, %16
  %20 = tail call noundef zeroext i1 @_ZN7JVMFlag10is_defaultE12JVMFlagsEnum(i32 noundef 1096) #5
  br i1 %20, label %.thread, label %24

.thread:                                          ; preds = %19
  %21 = load i32, ptr @_ZN2os31_initial_active_processor_countE, align 4
  %22 = sdiv i32 %21, 4
  %23 = tail call noundef i32 @llvm.smax.i32(i32 %22, i32 1)
  store i32 %23, ptr @ConcGCThreads, align 4
  br label %27

24:                                               ; preds = %19
  %.pr = load i32, ptr @ConcGCThreads, align 4
  %25 = icmp eq i32 %.pr, 0
  br i1 %25, label %26, label %27

26:                                               ; preds = %24
  tail call void @_Z29vm_exit_during_initializationPKcS0_(ptr noundef nonnull @.str.4, ptr noundef null) #5
  br label %27

27:                                               ; preds = %.thread, %26, %24
  %28 = tail call noundef zeroext i1 @_ZN7JVMFlag10is_defaultE12JVMFlagsEnum(i32 noundef 1092) #5
  br i1 %28, label %.thread17, label %32

.thread17:                                        ; preds = %27
  %29 = load i32, ptr @_ZN2os31_initial_active_processor_countE, align 4
  %30 = sdiv i32 %29, 2
  %31 = tail call noundef i32 @llvm.smax.i32(i32 %30, i32 1)
  store i32 %31, ptr @ParallelGCThreads, align 4
  br label %35

32:                                               ; preds = %27
  %.pr16 = load i32, ptr @ParallelGCThreads, align 4
  %33 = icmp eq i32 %.pr16, 0
  br i1 %33, label %34, label %35

34:                                               ; preds = %32
  tail call void @_Z29vm_exit_during_initializationPKcS0_(ptr noundef nonnull @.str.5, ptr noundef null) #5
  %.pre = load i32, ptr @ParallelGCThreads, align 4
  br label %35

35:                                               ; preds = %.thread17, %34, %32
  %36 = phi i32 [ %31, %.thread17 ], [ %.pre, %34 ], [ %.pr16, %32 ]
  %37 = load i32, ptr @ConcGCThreads, align 4
  %38 = icmp ult i32 %36, %37
  br i1 %38, label %39, label %46

39:                                               ; preds = %35
  %.not = xor i1 %20, true
  %brmerge = or i1 %28, %.not
  br i1 %brmerge, label %41, label %40

40:                                               ; preds = %39
  store i32 %36, ptr @ConcGCThreads, align 4
  br label %46

41:                                               ; preds = %39
  %.not10 = xor i1 %28, true
  %brmerge11 = or i1 %20, %.not10
  br i1 %brmerge11, label %43, label %42

42:                                               ; preds = %41
  store i32 %37, ptr @ParallelGCThreads, align 4
  br label %46

43:                                               ; preds = %41
  %brmerge14 = or i1 %.not, %.not10
  br i1 %brmerge14, label %45, label %44

44:                                               ; preds = %43
  tail call void @_Z29vm_exit_during_initializationPKcS0_(ptr noundef nonnull @.str.6, ptr noundef null) #5
  br label %46

45:                                               ; preds = %43
  tail call void @_Z29vm_exit_during_initializationPKcS0_(ptr noundef nonnull @.str.7, ptr noundef null) #5
  br label %46

46:                                               ; preds = %40, %44, %45, %42, %35
  %47 = load i8, ptr @UseDynamicNumberOfGCThreads, align 1
  %48 = trunc i8 %47 to i1
  br i1 %48, label %49, label %53

49:                                               ; preds = %46
  %50 = tail call noundef zeroext i1 @_ZN7JVMFlag10is_cmdlineE12JVMFlagsEnum(i32 noundef 1093) #5
  br i1 %50, label %51, label %52

51:                                               ; preds = %49
  tail call void (ptr, ...) @_Z7warningPKcz(ptr noundef nonnull @.str.8) #5
  br label %52

52:                                               ; preds = %51, %49
  store i8 0, ptr @UseDynamicNumberOfGCThreads, align 1
  br label %53

53:                                               ; preds = %52, %46
  %54 = load i8, ptr @ShenandoahRegionSampling, align 1
  %55 = trunc i8 %54 to i1
  br i1 %55, label %56, label %59

56:                                               ; preds = %53
  %57 = tail call noundef zeroext i1 @_ZN7JVMFlag10is_defaultE12JVMFlagsEnum(i32 noundef 859) #5
  br i1 %57, label %58, label %59

58:                                               ; preds = %56
  store i32 2097152, ptr @PerfDataMemorySize, align 4
  br label %59

59:                                               ; preds = %58, %56, %53
  %60 = tail call noundef zeroext i1 @_ZN7JVMFlag10is_defaultE12JVMFlagsEnum(i32 noundef 204) #5
  br i1 %60, label %61, label %64

61:                                               ; preds = %59
  store i8 1, ptr @UseCountedLoopSafepoints, align 1
  %62 = tail call noundef zeroext i1 @_ZN7JVMFlag10is_defaultE12JVMFlagsEnum(i32 noundef 358) #5
  br i1 %62, label %63, label %64

63:                                               ; preds = %61
  store i64 1000, ptr @LoopStripMiningIter, align 8
  br label %64

64:                                               ; preds = %61, %63, %59
  %65 = tail call noundef zeroext i1 @_ZN7JVMFlag10is_defaultE12JVMFlagsEnum(i32 noundef 532) #5
  br i1 %65, label %66, label %67

66:                                               ; preds = %64
  store i32 250, ptr @LogEventsBufferEntries, align 4
  br label %67

67:                                               ; preds = %66, %64
  %68 = load i64, ptr @InitialHeapSize, align 8
  %69 = load i64, ptr @MaxHeapSize, align 8
  %70 = icmp eq i64 %68, %69
  br i1 %70, label %71, label %78

71:                                               ; preds = %67
  %72 = load i8, ptr @ShenandoahUncommit, align 1
  %73 = trunc i8 %72 to i1
  br i1 %73, label %74, label %78

74:                                               ; preds = %71
  %75 = load volatile ptr, ptr getelementptr inbounds (i8, ptr @_ZN16LogTagSetMappingILN6LogTag4typeE49ELS1_0ELS1_0ELS1_0ELS1_0ELS1_0EE7_tagsetE, i64 64), align 8
  %.not18 = icmp eq ptr %75, null
  br i1 %.not18, label %77, label %76

76:                                               ; preds = %74
  tail call void (ptr, ...) @_ZN7LogImplILN6LogTag4typeE49ELS1_0ELS1_0ELS1_0ELS1_0ELS1_0EE5writeILN8LogLevel4typeE3EEEvPKcz(ptr noundef nonnull @.str.9)
  br label %77

77:                                               ; preds = %74, %76
  store i8 0, ptr @ShenandoahUncommit, align 1
  br label %78

78:                                               ; preds = %77, %71, %67
  %79 = load i8, ptr @ClassUnloading, align 1
  %80 = trunc i8 %79 to i1
  br i1 %80, label %82, label %81

81:                                               ; preds = %78
  store i8 0, ptr @ClassUnloadingWithConcurrentMark, align 1
  br label %82

82:                                               ; preds = %81, %78
  %83 = tail call noundef zeroext i1 @_ZN7JVMFlag10is_defaultE12JVMFlagsEnum(i32 noundef 1219) #5
  br i1 %83, label %84, label %85

84:                                               ; preds = %82
  store i64 90, ptr @TLABAllocationWeight, align 8
  br label %85

85:                                               ; preds = %84, %82
  ret void
}